; Function Attrs: mustprogress uwtable
define void @_ZN7Imf_3_211StdIFStream5seekgEm(ptr nocapture noundef nonnull readonly align 8 dereferenceable(49) %this, i64 noundef %pos) unnamed_addr #3 align 2 {
entry:
  %_is = getelementptr inbounds i8, ptr %this, i64 40
  %0 = load ptr, ptr %_is, align 8
  %call = tail call noundef nonnull align 8 dereferenceable(16) ptr @_ZNSi5seekgESt4fposI11__mbstate_tE(ptr noundef nonnull align 8 dereferenceable(16) %0, i64 %pos, i64 0)
  %1 = load ptr, ptr %_is, align 8
  %call3 = tail call fastcc noundef zeroext i1 @_ZN7Imf_3_212_GLOBAL__N_110checkErrorERSil(ptr noundef nonnull align 8 dereferenceable(16) %1, i64 noundef 0)
  ret void
}